; Function Attrs: mustprogress uwtable
define dso_local void @_ZN4Luau7CodeGen7compileERKSt5arrayIhLm16EEP9lua_StateiRKNS0_18CompilationOptionsEPNS0_16CompilationStatsE(ptr dead_on_unwind noalias writable sret(%"struct.Luau::CodeGen::CompilationResult") align 8 %0, ptr noundef nonnull readonly align 1 captures(none) dereferenceable(16) %1, ptr noundef %2, i32 noundef %3, ptr noundef nonnull align 8 dereferenceable(96) %4, ptr noundef %5) local_unnamed_addr #1 personality ptr @__gxx_personality_v0 {
  %7 = alloca %"class.std::optional.38", align 1
  call void @llvm.lifetime.start.p0(i64 17, ptr nonnull %7) #24
  call void @llvm.memcpy.p0.p0.i64(ptr noundef nonnull align 1 dereferenceable(17) %7, ptr noundef nonnull align 1 dereferenceable(16) %1, i64 16, i1 false), !tbaa.struct !135
  %8 = getelementptr inbounds nuw i8, ptr %7, i64 16
  store i8 1, ptr %8, align 1, !tbaa !95
  call fastcc void @_ZN4Luau7CodeGenL15compileInternalERKSt8optionalISt5arrayIhLm16EEEP9lua_StateiRKNS0_18CompilationOptionsEPNS0_16CompilationStatsE(ptr dead_on_unwind noalias writable align 8 %0, ptr noundef nonnull align 1 dereferenceable(17) %7, ptr noundef %2, i32 noundef %3, ptr noundef nonnull align 8 dereferenceable(96) %4, ptr noundef %5)
  call void @llvm.lifetime.end.p0(i64 17, ptr nonnull %7) #24
  ret void
}